target datalayout = "e-m:e-p270:32:32-p271:32:32-p272:64:64-i64:64-i128:128-f80:128-n8:16:32:64-S128"
target triple = "x86_64-pc-linux-gnu"

%struct.forward = type { %struct.slurm_node_alias_addrs_t, i16, i16, ptr, i32, i16, i16 }
%struct.slurm_node_alias_addrs_t = type { i64, ptr, ptr, i32, ptr }
%struct.sockaddr_storage = type { i16, [118 x i8], i64 }
%struct.slurm_msg = type { %struct.sockaddr_storage, ptr, i32, i32, i32, i8, i32, i8, i32, ptr, ptr, i32, ptr, ptr, i16, i8, i16, i16, %struct.forward, ptr, %struct.sockaddr_storage, ptr }
%struct.crontab_response_msg_t = type { ptr, ptr }

; Function Attrs: nounwind uwtable
define internal void @_pack_crontab_response_msg(ptr noundef %0, ptr noundef %1) #0 {
  %3 = alloca ptr, align 8
  %4 = alloca ptr, align 8
  %5 = alloca ptr, align 8
  %6 = alloca i32, align 4
  %7 = alloca i32, align 4
  store ptr %0, ptr %3, align 8
  store ptr %1, ptr %4, align 8
  call void @llvm.lifetime.start.p0(i64 8, ptr %5) #6
  %8 = load ptr, ptr %3, align 8
  %9 = getelementptr inbounds nuw %struct.slurm_msg, ptr %8, i32 0, i32 13
  %10 = load ptr, ptr %9, align 8
  store ptr %10, ptr %5, align 8
  %11 = load ptr, ptr %3, align 8
  %12 = getelementptr inbounds nuw %struct.slurm_msg, ptr %11, i32 0, i32 17
  %13 = load i16, ptr %12, align 2
  %14 = zext i16 %13 to i32
  %15 = icmp sge i32 %14, 10240
  br i1 %15, label %16, label %57

16:                                               ; preds = %2
  br label %17

17:                                               ; preds = %16
  call void @llvm.lifetime.start.p0(i64 4, ptr %6) #6
  store i32 0, ptr %6, align 4
  %18 = load ptr, ptr %5, align 8
  %19 = getelementptr inbounds nuw %struct.crontab_response_msg_t, ptr %18, i32 0, i32 0
  %20 = load ptr, ptr %19, align 8
  %21 = icmp ne ptr %20, null
  br i1 %21, label %22, label %29

22:                                               ; preds = %17
  %23 = load ptr, ptr %5, align 8
  %24 = getelementptr inbounds nuw %struct.crontab_response_msg_t, ptr %23, i32 0, i32 0
  %25 = load ptr, ptr %24, align 8
  %26 = call i64 @strlen(ptr noundef %25) #7
  %27 = trunc i64 %26 to i32
  %28 = add i32 %27, 1
  store i32 %28, ptr %6, align 4
  br label %29

29:                                               ; preds = %22, %17
  %30 = load ptr, ptr %5, align 8
  %31 = getelementptr inbounds nuw %struct.crontab_response_msg_t, ptr %30, i32 0, i32 0
  %32 = load ptr, ptr %31, align 8
  %33 = load i32, ptr %6, align 4
  %34 = load ptr, ptr %4, align 8
  call void @packmem(ptr noundef %32, i32 noundef %33, ptr noundef %34)
  call void @llvm.lifetime.end.p0(i64 4, ptr %6) #6
  br label %35

35:                                               ; preds = %29
  br label %36

36:                                               ; preds = %35
  br label %37

37:                                               ; preds = %36
  call void @llvm.lifetime.start.p0(i64 4, ptr %7) #6
  store i32 0, ptr %7, align 4
  %38 = load ptr, ptr %5, align 8
  %39 = getelementptr inbounds nuw %struct.crontab_response_msg_t, ptr %38, i32 0, i32 1
  %40 = load ptr, ptr %39, align 8
  %41 = icmp ne ptr %40, null
  br i1 %41, label %42, label %49

42:                                               ; preds = %37
  %43 = load ptr, ptr %5, align 8
  %44 = getelementptr inbounds nuw %struct.crontab_response_msg_t, ptr %43, i32 0, i32 1
  %45 = load ptr, ptr %44, align 8
  %46 = call i64 @strlen(ptr noundef %45) #7
  %47 = trunc i64 %46 to i32
  %48 = add i32 %47, 1
  store i32 %48, ptr %7, align 4
  br label %49

49:                                               ; preds = %42, %37
  %50 = load ptr, ptr %5, align 8
  %51 = getelementptr inbounds nuw %struct.crontab_response_msg_t, ptr %50, i32 0, i32 1
  %52 = load ptr, ptr %51, align 8
  %53 = load i32, ptr %7, align 4
  %54 = load ptr, ptr %4, align 8
  call void @packmem(ptr noundef %52, i32 noundef %53, ptr noundef %54)
  call void @llvm.lifetime.end.p0(i64 4, ptr %7) #6
  br label %55

55:                                               ; preds = %49
  br label %56

56:                                               ; preds = %55
  br label %57

57:                                               ; preds = %56, %2
  call void @llvm.lifetime.end.p0(i64 8, ptr %5) #6
  ret void
}