; Function Attrs: nounwind uwtable
define internal fastcc void @_pack_crontab_response_msg(ptr readonly captures(none) %.200.val, i16 %.214.val, ptr noundef %0) unnamed_addr #0 {
  %2 = icmp ugt i16 %.214.val, 10239
  br i1 %2, label %3, label %17

3:                                                ; preds = %1
  %4 = load ptr, ptr %.200.val, align 8
  %.not = icmp eq ptr %4, null
  br i1 %.not, label %9, label %5

5:                                                ; preds = %3
  %6 = tail call i64 @strlen(ptr noundef nonnull dereferenceable(1) %4) #8
  %7 = trunc i64 %6 to i32
  %8 = add i32 %7, 1
  br label %9

9:                                                ; preds = %5, %3
  %.011 = phi i32 [ %8, %5 ], [ 0, %3 ]
  tail call void @packmem(ptr noundef %4, i32 noundef %.011, ptr noundef %0) #7
  %10 = getelementptr inbounds nuw i8, ptr %.200.val, i64 8
  %11 = load ptr, ptr %10, align 8
  %.not14 = icmp eq ptr %11, null
  br i1 %.not14, label %16, label %12

12:                                               ; preds = %9
  %13 = tail call i64 @strlen(ptr noundef nonnull dereferenceable(1) %11) #8
  %14 = trunc i64 %13 to i32
  %15 = add i32 %14, 1
  br label %16

16:                                               ; preds = %12, %9
  %.0 = phi i32 [ %15, %12 ], [ 0, %9 ]
  tail call void @packmem(ptr noundef %11, i32 noundef %.0, ptr noundef %0) #7
  br label %17

17:                                               ; preds = %16, %1
  ret void
}